; Function Attrs: mustprogress uwtable
define noundef i32 @_ZNK6casadi10FastNewton8init_memEPv(ptr noundef nonnull align 8 dereferenceable(1688) %0, ptr noundef %1) unnamed_addr #3 align 2 {
  %3 = tail call noundef i32 @_ZNK6casadi10Rootfinder8init_memEPv(ptr noundef nonnull align 8 dereferenceable(1592) %0, ptr noundef %1)
  %.not = icmp eq i32 %3, 0
  br i1 %.not, label %4, label %7

4:                                                ; preds = %2
  %5 = getelementptr inbounds i8, ptr %1, i64 136
  store i32 0, ptr %5, align 8
  %6 = getelementptr inbounds i8, ptr %1, i64 144
  store i64 0, ptr %6, align 8
  br label %7

7:                                                ; preds = %2, %4
  %.0 = phi i32 [ 0, %4 ], [ 1, %2 ]
  ret i32 %.0
}